(dp1
S'finanzSingleSpider'
p2
ccopy_reg
_reconstructor
p3
(ctwisted.plugin
CachedDropin
p4
c__builtin__
object
p5
NtRp6
(dp7
S'moduleName'
p8
S'finanzpartner.spiders.finanzSingleSpider'
p9
sS'description'
p10
NsS'plugins'
p11
(lp12
g3
(ctwisted.plugin
CachedPlugin
p13
g5
NtRp14
(dp15
S'provided'
p16
(lp17
cscrapy.spider.models
ISpider
p18
asS'dropin'
p19
g6
sS'name'
p20
S'SPIDER'
p21
sg10
NsbasbsS'YahooSearchSpider'
p22
g3
(g4
g5
NtRp23
(dp24
S'moduleName'
p25
S'finanzpartner.spiders.YahooSearchSpider'
p26
sS'description'
p27
S'\nCreated on May 9, 2010\n\n@author: bastian\n'
p28
sS'plugins'
p29
(lp30
g3
(g13
g5
NtRp31
(dp32
S'provided'
p33
(lp34
g18
asS'dropin'
p35
g23
sS'name'
p36
S'SPIDER'
p37
sg27
Nsbasbs.