(dp1
S'onvistaSpider'
p2
ccopy_reg
_reconstructor
p3
(ctwisted.plugin
CachedDropin
p4
c__builtin__
object
p5
NtRp6
(dp7
S'moduleName'
p8
S'finanzpartner.spiders.onvistaSpider'
p9
sS'description'
p10
NsS'plugins'
p11
(lp12
g3
(ctwisted.plugin
CachedPlugin
p13
g5
NtRp14
(dp15
S'provided'
p16
(lp17
cscrapy.spider.models
ISpider
p18
asS'dropin'
p19
g6
sS'name'
p20
S'SPIDER'
p21
sg10
NsbasbsS'finanzSingleSpider'
p22
g3
(g4
g5
NtRp23
(dp24
g8
S'finanzpartner.spiders.finanzSingleSpider'
p25
sg10
Nsg11
(lp26
g3
(g13
g5
NtRp27
(dp28
g16
(lp29
g18
asg19
g23
sg20
g21
sg10
NsbasbsS'YahooSearchSpider'
p30
g3
(g4
g5
NtRp31
(dp32
S'moduleName'
p33
S'finanzpartner.spiders.YahooSearchSpider'
p34
sS'description'
p35
S'\nCreated on May 9, 2010\n\n@author: bastian\n'
p36
sS'plugins'
p37
(lp38
g3
(g13
g5
NtRp39
(dp40
S'provided'
p41
(lp42
g18
asS'dropin'
p43
g31
sS'name'
p44
S'SPIDER'
p45
sg35
Nsbasbs.